target datalayout = "e-m:e-p270:32:32-p271:32:32-p272:64:64-i64:64-i128:128-f80:128-n8:16:32:64-S128"
target triple = "x86_64-pc-linux-gnu"

%struct.Abc_Ntk_t_ = type { i32, i32, ptr, ptr, ptr, ptr, ptr, ptr, ptr, ptr, ptr, ptr, ptr, [11 x i32], i32, i32, i32, i32, ptr, i32, ptr, ptr, i32, i32, i32, double, i32, %struct.Vec_Int_t_, ptr, ptr, ptr, ptr, ptr, float, i32, ptr, ptr, ptr, ptr, ptr, ptr, ptr, ptr, ptr, ptr, ptr, ptr, ptr, ptr, ptr, ptr, ptr, ptr, ptr, ptr, ptr, ptr }
%struct.Vec_Int_t_ = type { i32, i32, ptr }
%struct.Abc_Obj_t_ = type { ptr, ptr, i32, i32, %struct.Vec_Int_t_, %struct.Vec_Int_t_, %union.anon, %union.anon.0 }
%union.anon = type { ptr }
%union.anon.0 = type { ptr }
%struct.Vec_Ptr_t_ = type { i32, i32, ptr }
%struct.Hop_Obj_t_ = type { %union.anon.2, %union.anon.3, ptr, ptr, i32, i32 }
%union.anon.2 = type { ptr }
%union.anon.3 = type { ptr }
%struct.Hop_Man_t_ = type { ptr, ptr, ptr, ptr, %struct.Hop_Obj_t_, [6 x i32], i32, i32, ptr, i32, ptr, i32, i32, i32, ptr, ptr, ptr, i64, i64 }

@.str.7 = private unnamed_addr constant [55 x i8] c"Abc_NtkSopToAig: Error while converting SOP into AIG.\0A\00", align 1

; Function Attrs: inlinehint nounwind uwtable
define internal ptr @Hop_NotCond(ptr noundef %0, i32 noundef %1) #6 {
  %3 = alloca ptr, align 8
  %4 = alloca i32, align 4
  store ptr %0, ptr %3, align 8, !tbaa !113
  store i32 %1, ptr %4, align 4, !tbaa !8
  %5 = load ptr, ptr %3, align 8, !tbaa !113
  %6 = ptrtoint ptr %5 to i64
  %7 = load i32, ptr %4, align 4, !tbaa !8
  %8 = sext i32 %7 to i64
  %9 = xor i64 %6, %8
  %10 = inttoptr i64 %9 to ptr
  ret ptr %10
}

; Function Attrs: inlinehint nounwind uwtable
define internal ptr @Hop_ManConst1(ptr noundef %0) #6 {
  %2 = alloca ptr, align 8
  store ptr %0, ptr %2, align 8, !tbaa !101
  %3 = load ptr, ptr %2, align 8, !tbaa !101
  %4 = getelementptr inbounds nuw %struct.Hop_Man_t_, ptr %3, i32 0, i32 3
  %5 = load ptr, ptr %4, align 8, !tbaa !120
  ret ptr %5
}

; Function Attrs: inlinehint nounwind uwtable
define internal i32 @Vec_IntSize(ptr noundef %0) #6 {
  %2 = alloca ptr, align 8
  store ptr %0, ptr %2, align 8, !tbaa !28
  %3 = load ptr, ptr %2, align 8, !tbaa !28
  %4 = getelementptr inbounds nuw %struct.Vec_Int_t_, ptr %3, i32 0, i32 1
  %5 = load i32, ptr %4, align 4, !tbaa !67
  ret i32 %5
}

; Function Attrs: inlinehint nounwind uwtable
define internal i32 @Abc_NtkHasMapping(ptr noundef %0) #6 {
  %2 = alloca ptr, align 8
  store ptr %0, ptr %2, align 8, !tbaa !26
  %3 = load ptr, ptr %2, align 8, !tbaa !26
  %4 = getelementptr inbounds nuw %struct.Abc_Ntk_t_, ptr %3, i32 0, i32 1
  %5 = load i32, ptr %4, align 4, !tbaa !63
  %6 = icmp eq i32 %5, 4
  %7 = zext i1 %6 to i32
  ret i32 %7
}

; Function Attrs: inlinehint nounwind uwtable
define internal ptr @Vec_PtrEntry(ptr noundef %0, i32 noundef %1) #6 {
  %3 = alloca ptr, align 8
  %4 = alloca i32, align 4
  store ptr %0, ptr %3, align 8, !tbaa !64
  store i32 %1, ptr %4, align 4, !tbaa !8
  %5 = load ptr, ptr %3, align 8, !tbaa !64
  %6 = getelementptr inbounds nuw %struct.Vec_Ptr_t_, ptr %5, i32 0, i32 2
  %7 = load ptr, ptr %6, align 8, !tbaa !93
  %8 = load i32, ptr %4, align 4, !tbaa !8
  %9 = sext i32 %8 to i64
  %10 = getelementptr inbounds ptr, ptr %7, i64 %9
  %11 = load ptr, ptr %10, align 8, !tbaa !94
  ret ptr %11
}

; Function Attrs: nounwind uwtable
define internal ptr @Abc_ConvertSopToAig(ptr noundef %0, ptr noundef %1) #0 {
  %3 = alloca ptr, align 8
  %4 = alloca ptr, align 8
  %5 = alloca ptr, align 8
  %6 = alloca i32, align 4
  %7 = alloca i32, align 4
  store ptr %0, ptr %4, align 8, !tbaa !101
  store ptr %1, ptr %5, align 8, !tbaa !3
  call void @llvm.lifetime.start.p0(i64 4, ptr %6) #10
  store i32 1, ptr %6, align 4, !tbaa !8
  %8 = load ptr, ptr %5, align 8, !tbaa !3
  %9 = call i32 @Abc_SopGetVarNum(ptr noundef %8)
  %10 = icmp eq i32 %9, 0
  br i1 %10, label %11, label %17

11:                                               ; preds = %2
  %12 = load ptr, ptr %4, align 8, !tbaa !101
  %13 = call ptr @Hop_ManConst1(ptr noundef %12)
  %14 = load ptr, ptr %5, align 8, !tbaa !3
  %15 = call i32 @Abc_SopIsConst0(ptr noundef %14)
  %16 = call ptr @Hop_NotCond(ptr noundef %13, i32 noundef %15)
  store ptr %16, ptr %3, align 8
  store i32 1, ptr %7, align 4
  br label %40

17:                                               ; preds = %2
  %18 = load i32, ptr %6, align 4, !tbaa !8
  %19 = icmp ne i32 %18, 0
  br i1 %19, label %20, label %36

20:                                               ; preds = %17
  %21 = load ptr, ptr %5, align 8, !tbaa !3
  %22 = call i32 @Abc_SopGetVarNum(ptr noundef %21)
  %23 = icmp sgt i32 %22, 2
  br i1 %23, label %24, label %36

24:                                               ; preds = %20
  %25 = load ptr, ptr %5, align 8, !tbaa !3
  %26 = call i32 @Abc_SopGetCubeNum(ptr noundef %25)
  %27 = icmp sgt i32 %26, 1
  br i1 %27, label %28, label %36

28:                                               ; preds = %24
  %29 = load ptr, ptr %5, align 8, !tbaa !3
  %30 = call i32 @Abc_SopIsExorType(ptr noundef %29)
  %31 = icmp ne i32 %30, 0
  br i1 %31, label %36, label %32

32:                                               ; preds = %28
  %33 = load ptr, ptr %4, align 8, !tbaa !101
  %34 = load ptr, ptr %5, align 8, !tbaa !3
  %35 = call ptr @Dec_GraphFactorSop(ptr noundef %33, ptr noundef %34)
  store ptr %35, ptr %3, align 8
  store i32 1, ptr %7, align 4
  br label %40

36:                                               ; preds = %28, %24, %20, %17
  %37 = load ptr, ptr %4, align 8, !tbaa !101
  %38 = load ptr, ptr %5, align 8, !tbaa !3
  %39 = call ptr @Abc_ConvertSopToAigInternal(ptr noundef %37, ptr noundef %38)
  store ptr %39, ptr %3, align 8
  store i32 1, ptr %7, align 4
  br label %40

40:                                               ; preds = %36, %32, %11
  call void @llvm.lifetime.end.p0(i64 4, ptr %6) #10
  %41 = load ptr, ptr %3, align 8
  ret ptr %41
}

; Function Attrs: inlinehint nounwind uwtable
define internal i32 @Abc_ObjIsBarBuf(ptr noundef %0) #6 {
  %2 = alloca ptr, align 8
  store ptr %0, ptr %2, align 8, !tbaa !43
  %3 = load ptr, ptr %2, align 8, !tbaa !43
  %4 = getelementptr inbounds nuw %struct.Abc_Obj_t_, ptr %3, i32 0, i32 0
  %5 = load ptr, ptr %4, align 8, !tbaa !70
  %6 = call i32 @Abc_NtkHasMapping(ptr noundef %5)
  %7 = icmp ne i32 %6, 0
  br i1 %7, label %8, label %22

8:                                                ; preds = %1
  %9 = load ptr, ptr %2, align 8, !tbaa !43
  %10 = call i32 @Abc_ObjIsNode(ptr noundef %9)
  %11 = icmp ne i32 %10, 0
  br i1 %11, label %12, label %22

12:                                               ; preds = %8
  %13 = load ptr, ptr %2, align 8, !tbaa !43
  %14 = getelementptr inbounds nuw %struct.Abc_Obj_t_, ptr %13, i32 0, i32 4
  %15 = call i32 @Vec_IntSize(ptr noundef %14)
  %16 = icmp eq i32 %15, 1
  br i1 %16, label %17, label %22

17:                                               ; preds = %12
  %18 = load ptr, ptr %2, align 8, !tbaa !43
  %19 = getelementptr inbounds nuw %struct.Abc_Obj_t_, ptr %18, i32 0, i32 6
  %20 = load ptr, ptr %19, align 8, !tbaa !12
  %21 = icmp eq ptr %20, null
  br label %22

22:                                               ; preds = %17, %12, %8, %1
  %23 = phi i1 [ false, %12 ], [ false, %8 ], [ false, %1 ], [ %21, %17 ]
  %24 = zext i1 %23 to i32
  ret i32 %24
}

; Function Attrs: inlinehint nounwind uwtable
define internal i32 @Abc_ObjIsNode(ptr noundef %0) #6 {
  %2 = alloca ptr, align 8
  store ptr %0, ptr %2, align 8, !tbaa !43
  %3 = load ptr, ptr %2, align 8, !tbaa !43
  %4 = getelementptr inbounds nuw %struct.Abc_Obj_t_, ptr %3, i32 0, i32 3
  %5 = load i32, ptr %4, align 4
  %6 = and i32 %5, 15
  %7 = icmp eq i32 %6, 7
  %8 = zext i1 %7 to i32
  ret i32 %8
}

; Function Attrs: inlinehint nounwind uwtable
define internal ptr @Abc_NtkObj(ptr noundef %0, i32 noundef %1) #6 {
  %3 = alloca ptr, align 8
  %4 = alloca i32, align 4
  store ptr %0, ptr %3, align 8, !tbaa !26
  store i32 %1, ptr %4, align 4, !tbaa !8
  %5 = load ptr, ptr %3, align 8, !tbaa !26
  %6 = getelementptr inbounds nuw %struct.Abc_Ntk_t_, ptr %5, i32 0, i32 5
  %7 = load ptr, ptr %6, align 8, !tbaa !30
  %8 = load i32, ptr %4, align 4, !tbaa !8
  %9 = call ptr @Vec_PtrEntry(ptr noundef %7, i32 noundef %8)
  ret ptr %9
}

; Function Attrs: inlinehint nounwind uwtable
define internal i32 @Vec_PtrSize(ptr noundef %0) #6 {
  %2 = alloca ptr, align 8
  store ptr %0, ptr %2, align 8, !tbaa !64
  %3 = load ptr, ptr %2, align 8, !tbaa !64
  %4 = getelementptr inbounds nuw %struct.Vec_Ptr_t_, ptr %3, i32 0, i32 1
  %5 = load i32, ptr %4, align 4, !tbaa !65
  ret i32 %5
}

; Function Attrs: nounwind uwtable
define i32 @Abc_NtkSopToAig(ptr noundef %0) #0 {
  %2 = alloca i32, align 4
  %3 = alloca ptr, align 8
  %4 = alloca ptr, align 8
  %5 = alloca ptr, align 8
  %6 = alloca i32, align 4
  %7 = alloca i32, align 4
  %8 = alloca i32, align 4
  store ptr %0, ptr %3, align 8, !tbaa !26
  call void @llvm.lifetime.start.p0(i64 8, ptr %4) #10
  call void @llvm.lifetime.start.p0(i64 8, ptr %5) #10
  call void @llvm.lifetime.start.p0(i64 4, ptr %6) #10
  call void @llvm.lifetime.start.p0(i64 4, ptr %7) #10
  %9 = call ptr (...) @Hop_ManStart()
  store ptr %9, ptr %5, align 8, !tbaa !101
  %10 = load ptr, ptr %3, align 8, !tbaa !26
  %11 = call i32 @Abc_NtkGetFaninMax(ptr noundef %10)
  store i32 %11, ptr %7, align 4, !tbaa !8
  %12 = load i32, ptr %7, align 4, !tbaa !8
  %13 = icmp ne i32 %12, 0
  br i1 %13, label %14, label %19

14:                                               ; preds = %1
  %15 = load ptr, ptr %5, align 8, !tbaa !101
  %16 = load i32, ptr %7, align 4, !tbaa !8
  %17 = sub nsw i32 %16, 1
  %18 = call ptr @Hop_IthVar(ptr noundef %15, i32 noundef %17)
  br label %19

19:                                               ; preds = %14, %1
  store i32 0, ptr %6, align 4, !tbaa !8
  br label %20

20:                                               ; preds = %63, %19
  %21 = load i32, ptr %6, align 4, !tbaa !8
  %22 = load ptr, ptr %3, align 8, !tbaa !26
  %23 = getelementptr inbounds nuw %struct.Abc_Ntk_t_, ptr %22, i32 0, i32 5
  %24 = load ptr, ptr %23, align 8, !tbaa !30
  %25 = call i32 @Vec_PtrSize(ptr noundef %24)
  %26 = icmp slt i32 %21, %25
  br i1 %26, label %27, label %31

27:                                               ; preds = %20
  %28 = load ptr, ptr %3, align 8, !tbaa !26
  %29 = load i32, ptr %6, align 4, !tbaa !8
  %30 = call ptr @Abc_NtkObj(ptr noundef %28, i32 noundef %29)
  store ptr %30, ptr %4, align 8, !tbaa !43
  br label %31

31:                                               ; preds = %27, %20
  %32 = phi i1 [ false, %20 ], [ true, %27 ]
  br i1 %32, label %33, label %66

33:                                               ; preds = %31
  %34 = load ptr, ptr %4, align 8, !tbaa !43
  %35 = icmp eq ptr %34, null
  br i1 %35, label %40, label %36

36:                                               ; preds = %33
  %37 = load ptr, ptr %4, align 8, !tbaa !43
  %38 = call i32 @Abc_ObjIsNode(ptr noundef %37)
  %39 = icmp ne i32 %38, 0
  br i1 %39, label %41, label %40

40:                                               ; preds = %36, %33
  br label %62

41:                                               ; preds = %36
  %42 = load ptr, ptr %4, align 8, !tbaa !43
  %43 = call i32 @Abc_ObjIsBarBuf(ptr noundef %42)
  %44 = icmp ne i32 %43, 0
  br i1 %44, label %45, label %46

45:                                               ; preds = %41
  br label %63

46:                                               ; preds = %41
  %47 = load ptr, ptr %5, align 8, !tbaa !101
  %48 = load ptr, ptr %4, align 8, !tbaa !43
  %49 = getelementptr inbounds nuw %struct.Abc_Obj_t_, ptr %48, i32 0, i32 6
  %50 = load ptr, ptr %49, align 8, !tbaa !12
  %51 = call ptr @Abc_ConvertSopToAig(ptr noundef %47, ptr noundef %50)
  %52 = load ptr, ptr %4, align 8, !tbaa !43
  %53 = getelementptr inbounds nuw %struct.Abc_Obj_t_, ptr %52, i32 0, i32 6
  store ptr %51, ptr %53, align 8, !tbaa !12
  %54 = load ptr, ptr %4, align 8, !tbaa !43
  %55 = getelementptr inbounds nuw %struct.Abc_Obj_t_, ptr %54, i32 0, i32 6
  %56 = load ptr, ptr %55, align 8, !tbaa !12
  %57 = icmp eq ptr %56, null
  br i1 %57, label %58, label %61

58:                                               ; preds = %46
  %59 = load ptr, ptr %5, align 8, !tbaa !101
  call void @Hop_ManStop(ptr noundef %59)
  %60 = call i32 (ptr, ...) @printf(ptr noundef @.str.7)
  store i32 0, ptr %2, align 4
  store i32 1, ptr %8, align 4
  br label %75

61:                                               ; preds = %46
  br label %62

62:                                               ; preds = %61, %40
  br label %63

63:                                               ; preds = %62, %45
  %64 = load i32, ptr %6, align 4, !tbaa !8
  %65 = add nsw i32 %64, 1
  store i32 %65, ptr %6, align 4, !tbaa !8
  br label %20, !llvm.loop !116

66:                                               ; preds = %31
  %67 = load ptr, ptr %3, align 8, !tbaa !26
  %68 = getelementptr inbounds nuw %struct.Abc_Ntk_t_, ptr %67, i32 0, i32 30
  %69 = load ptr, ptr %68, align 8, !tbaa !62
  call void @Mem_FlexStop(ptr noundef %69, i32 noundef 0)
  %70 = load ptr, ptr %5, align 8, !tbaa !101
  %71 = load ptr, ptr %3, align 8, !tbaa !26
  %72 = getelementptr inbounds nuw %struct.Abc_Ntk_t_, ptr %71, i32 0, i32 30
  store ptr %70, ptr %72, align 8, !tbaa !62
  %73 = load ptr, ptr %3, align 8, !tbaa !26
  %74 = getelementptr inbounds nuw %struct.Abc_Ntk_t_, ptr %73, i32 0, i32 1
  store i32 3, ptr %74, align 4, !tbaa !63
  store i32 1, ptr %2, align 4
  store i32 1, ptr %8, align 4
  br label %75

75:                                               ; preds = %66, %58
  call void @llvm.lifetime.end.p0(i64 4, ptr %7) #10
  call void @llvm.lifetime.end.p0(i64 4, ptr %6) #10
  call void @llvm.lifetime.end.p0(i64 8, ptr %5) #10
  call void @llvm.lifetime.end.p0(i64 8, ptr %4) #10
  %76 = load i32, ptr %2, align 4
  ret i32 %76
}