; Function Attrs: nounwind uwtable
define range(i32 0, 2) i32 @Abc_NtkSopToAig(ptr noundef %0) local_unnamed_addr #2 {
  %2 = tail call ptr (...) @Hop_ManStart() #17
  %3 = tail call i32 @Abc_NtkGetFaninMax(ptr noundef %0) #17
  %.not = icmp eq i32 %3, 0
  br i1 %.not, label %7, label %4

4:                                                ; preds = %1
  %5 = add nsw i32 %3, -1
  %6 = tail call ptr @Hop_IthVar(ptr noundef %2, i32 noundef %5) #17
  br label %7

7:                                                ; preds = %4, %1
  %8 = getelementptr inbounds nuw i8, ptr %0, i64 32
  %9 = load ptr, ptr %8, align 8, !tbaa !18
  %10 = getelementptr i8, ptr %9, i64 4
  %.val34 = load i32, ptr %10, align 4, !tbaa !35
  %11 = icmp sgt i32 %.val34, 0
  br i1 %11, label %.lr.ph, label %.critedge

.lr.ph:                                           ; preds = %7
  %12 = getelementptr i8, ptr %2, i64 24
  br label %13

13:                                               ; preds = %.lr.ph, %54
  %14 = phi ptr [ %9, %.lr.ph ], [ %55, %54 ]
  %indvars.iv = phi i64 [ 0, %.lr.ph ], [ %indvars.iv.next, %54 ]
  %15 = getelementptr i8, ptr %14, i64 8
  %.val26.val = load ptr, ptr %15, align 8, !tbaa !37
  %16 = getelementptr inbounds nuw ptr, ptr %.val26.val, i64 %indvars.iv
  %17 = load ptr, ptr %16, align 8, !tbaa !38
  %18 = icmp eq ptr %17, null
  br i1 %18, label %54, label %19

19:                                               ; preds = %13
  %20 = getelementptr i8, ptr %17, i64 20
  %.val27 = load i32, ptr %20, align 4
  %21 = and i32 %.val27, 15
  %.not32 = icmp eq i32 %21, 7
  br i1 %.not32, label %22, label %54

22:                                               ; preds = %19
  %23 = load ptr, ptr %17, align 8, !tbaa !43
  %24 = getelementptr i8, ptr %23, i64 4
  %.val5.i = load i32, ptr %24, align 4, !tbaa !46
  %.not.i.not = icmp eq i32 %.val5.i, 4
  br i1 %.not.i.not, label %25, label %Abc_ObjIsBarBuf.exit.thread

25:                                               ; preds = %22
  %26 = getelementptr i8, ptr %17, i64 28
  %.val6.i = load i32, ptr %26, align 4, !tbaa !40
  %27 = icmp eq i32 %.val6.i, 1
  br i1 %27, label %Abc_ObjIsBarBuf.exit, label %Abc_ObjIsBarBuf.exit.thread

Abc_ObjIsBarBuf.exit:                             ; preds = %25
  %28 = getelementptr inbounds nuw i8, ptr %17, i64 56
  %29 = load ptr, ptr %28, align 8, !tbaa !3
  %.not33 = icmp eq ptr %29, null
  br i1 %.not33, label %54, label %Abc_ObjIsBarBuf.exit.thread

Abc_ObjIsBarBuf.exit.thread:                      ; preds = %22, %25, %Abc_ObjIsBarBuf.exit
  %30 = getelementptr inbounds nuw i8, ptr %17, i64 56
  %31 = load ptr, ptr %30, align 8, !tbaa !3
  %32 = tail call i32 @Abc_SopGetVarNum(ptr noundef %31) #17
  %33 = icmp eq i32 %32, 0
  br i1 %33, label %34, label %40

34:                                               ; preds = %Abc_ObjIsBarBuf.exit.thread
  %.val.i29 = load ptr, ptr %12, align 8, !tbaa !97
  %35 = tail call i32 @Abc_SopIsConst0(ptr noundef %31) #17
  %36 = ptrtoint ptr %.val.i29 to i64
  %37 = sext i32 %35 to i64
  %38 = xor i64 %37, %36
  %39 = inttoptr i64 %38 to ptr
  br label %Abc_ConvertSopToAig.exit

40:                                               ; preds = %Abc_ObjIsBarBuf.exit.thread
  %41 = tail call i32 @Abc_SopGetVarNum(ptr noundef %31) #17
  %42 = icmp sgt i32 %41, 2
  br i1 %42, label %43, label %50

43:                                               ; preds = %40
  %44 = tail call i32 @Abc_SopGetCubeNum(ptr noundef %31) #17
  %45 = icmp sgt i32 %44, 1
  br i1 %45, label %46, label %50

46:                                               ; preds = %43
  %47 = tail call i32 @Abc_SopIsExorType(ptr noundef %31) #17
  %.not.i28 = icmp eq i32 %47, 0
  br i1 %.not.i28, label %48, label %50

48:                                               ; preds = %46
  %49 = tail call ptr @Dec_GraphFactorSop(ptr noundef %2, ptr noundef %31) #17
  br label %Abc_ConvertSopToAig.exit

50:                                               ; preds = %46, %43, %40
  %51 = tail call ptr @Abc_ConvertSopToAigInternal(ptr noundef %2, ptr noundef %31)
  br label %Abc_ConvertSopToAig.exit

Abc_ConvertSopToAig.exit:                         ; preds = %34, %48, %50
  %.0.i = phi ptr [ %39, %34 ], [ %51, %50 ], [ %49, %48 ]
  store ptr %.0.i, ptr %30, align 8, !tbaa !3
  %52 = icmp eq ptr %.0.i, null
  br i1 %52, label %53, label %Abc_ConvertSopToAig.exit._crit_edge

Abc_ConvertSopToAig.exit._crit_edge:              ; preds = %Abc_ConvertSopToAig.exit
  %.pre = load ptr, ptr %8, align 8, !tbaa !18
  br label %54

53:                                               ; preds = %Abc_ConvertSopToAig.exit
  tail call void @Hop_ManStop(ptr noundef %2) #17
  %puts = tail call i32 @puts(ptr nonnull dereferenceable(1) @str.6)
  br label %62

54:                                               ; preds = %Abc_ConvertSopToAig.exit._crit_edge, %19, %13, %Abc_ObjIsBarBuf.exit
  %55 = phi ptr [ %.pre, %Abc_ConvertSopToAig.exit._crit_edge ], [ %14, %19 ], [ %14, %13 ], [ %14, %Abc_ObjIsBarBuf.exit ]
  %indvars.iv.next = add nuw nsw i64 %indvars.iv, 1
  %56 = getelementptr i8, ptr %55, i64 4
  %.val = load i32, ptr %56, align 4, !tbaa !35
  %57 = sext i32 %.val to i64
  %58 = icmp slt i64 %indvars.iv.next, %57
  br i1 %58, label %13, label %.critedge, !llvm.loop !98

.critedge:                                        ; preds = %54, %7
  %59 = getelementptr inbounds nuw i8, ptr %0, i64 256
  %60 = load ptr, ptr %59, align 8, !tbaa !65
  tail call void @Mem_FlexStop(ptr noundef %60, i32 noundef 0) #17
  store ptr %2, ptr %59, align 8, !tbaa !65
  %61 = getelementptr inbounds nuw i8, ptr %0, i64 4
  store i32 3, ptr %61, align 4, !tbaa !46
  br label %62

62:                                               ; preds = %.critedge, %53
  %.0 = phi i32 [ 0, %53 ], [ 1, %.critedge ]
  ret i32 %.0
}